target datalayout = "e-m:e-p270:32:32-p271:32:32-p272:64:64-i64:64-i128:128-f80:128-n8:16:32:64-S128"
target triple = "x86_64-pc-linux-gnu"

%struct.ItemPointerData = type { %struct.BlockIdData, i16 }
%struct.BlockIdData = type { i16, i16 }
%struct.PageHeaderData = type { %struct.PageXLogRecPtr, i16, i16, i16, i16, i16, i16, i32, [0 x %struct.ItemIdData] }
%struct.PageXLogRecPtr = type { i32, i32 }
%struct.ItemIdData = type { i32 }
%struct.HeapTupleHeaderData = type { %union.anon.1, %struct.ItemPointerData, i16, i16, i8, [0 x i8] }
%union.anon.1 = type { %struct.HeapTupleFields }
%struct.HeapTupleFields = type { i32, i32, %union.anon.2 }
%union.anon.2 = type { i32 }
%struct.HeapTupleFreeze = type { i32, i16, i16, i8, i8, i16 }

@.str.1 = private unnamed_addr constant [9 x i8] c"heapam.c\00", align 1
@.str.24 = private unnamed_addr constant [39 x i8] c"uncommitted xmin %u needs to be frozen\00", align 1
@__func__.heap_pre_freeze_checks = private unnamed_addr constant [23 x i8] c"heap_pre_freeze_checks\00", align 1
@.str.25 = private unnamed_addr constant [32 x i8] c"cannot freeze committed xmax %u\00", align 1
@LocalBufferBlockPointers = external global ptr, align 8
@BufferBlocks = external global ptr, align 8

; Function Attrs: inlinehint nounwind uwtable
define internal ptr @BufferGetBlock(i32 noundef %0) #3 {
  %2 = alloca ptr, align 8
  %3 = alloca i32, align 4
  store i32 %0, ptr %3, align 4
  %4 = load i32, ptr %3, align 4
  %5 = icmp slt i32 %4, 0
  br i1 %5, label %6, label %14

6:                                                ; preds = %1
  %7 = load ptr, ptr @LocalBufferBlockPointers, align 8
  %8 = load i32, ptr %3, align 4
  %9 = sub i32 0, %8
  %10 = sub i32 %9, 1
  %11 = sext i32 %10 to i64
  %12 = getelementptr inbounds ptr, ptr %7, i64 %11
  %13 = load ptr, ptr %12, align 8
  store ptr %13, ptr %2, align 8
  br label %21

14:                                               ; preds = %1
  %15 = load ptr, ptr @BufferBlocks, align 8
  %16 = load i32, ptr %3, align 4
  %17 = sub i32 %16, 1
  %18 = sext i32 %17 to i64
  %19 = mul i64 %18, 8192
  %20 = getelementptr inbounds nuw i8, ptr %15, i64 %19
  store ptr %20, ptr %2, align 8
  br label %21

21:                                               ; preds = %14, %6
  %22 = load ptr, ptr %2, align 8
  ret ptr %22
}

; Function Attrs: inlinehint nounwind uwtable
define internal i32 @HeapTupleHeaderGetRawXmax(ptr noundef %0) #3 {
  %2 = alloca ptr, align 8
  store ptr %0, ptr %2, align 8
  %3 = load ptr, ptr %2, align 8
  %4 = getelementptr inbounds nuw %struct.HeapTupleHeaderData, ptr %3, i32 0, i32 0
  %5 = getelementptr inbounds nuw %struct.HeapTupleFields, ptr %4, i32 0, i32 1
  %6 = load i32, ptr %5, align 4
  ret i32 %6
}

; Function Attrs: inlinehint nounwind uwtable
define internal i32 @HeapTupleHeaderGetRawXmin(ptr noundef %0) #3 {
  %2 = alloca ptr, align 8
  store ptr %0, ptr %2, align 8
  %3 = load ptr, ptr %2, align 8
  %4 = getelementptr inbounds nuw %struct.HeapTupleHeaderData, ptr %3, i32 0, i32 0
  %5 = getelementptr inbounds nuw %struct.HeapTupleFields, ptr %4, i32 0, i32 0
  %6 = load i32, ptr %5, align 4
  ret i32 %6
}

; Function Attrs: inlinehint nounwind uwtable
define internal ptr @PageGetItem(ptr noundef %0, ptr noundef %1) #3 {
  %3 = alloca ptr, align 8
  %4 = alloca ptr, align 8
  store ptr %0, ptr %3, align 8
  store ptr %1, ptr %4, align 8
  %5 = load ptr, ptr %3, align 8
  %6 = load ptr, ptr %4, align 8
  %7 = load i32, ptr %6, align 4
  %8 = and i32 %7, 32767
  %9 = sext i32 %8 to i64
  %10 = getelementptr inbounds i8, ptr %5, i64 %9
  ret ptr %10
}

; Function Attrs: inlinehint nounwind uwtable
define internal ptr @PageGetItemId(ptr noundef %0, i16 noundef zeroext %1) #3 {
  %3 = alloca ptr, align 8
  %4 = alloca i16, align 2
  store ptr %0, ptr %3, align 8
  store i16 %1, ptr %4, align 2
  %5 = load ptr, ptr %3, align 8
  %6 = getelementptr inbounds nuw %struct.PageHeaderData, ptr %5, i32 0, i32 8
  %7 = load i16, ptr %4, align 2
  %8 = zext i16 %7 to i32
  %9 = sub i32 %8, 1
  %10 = sext i32 %9 to i64
  %11 = getelementptr inbounds [0 x %struct.ItemIdData], ptr %6, i64 0, i64 %10
  ret ptr %11
}

; Function Attrs: inlinehint nounwind uwtable
define internal ptr @BufferGetPage(i32 noundef %0) #3 {
  %2 = alloca i32, align 4
  store i32 %0, ptr %2, align 4
  %3 = load i32, ptr %2, align 4
  %4 = call ptr @BufferGetBlock(i32 noundef %3)
  ret ptr %4
}

; Function Attrs: nounwind uwtable
define dso_local void @heap_pre_freeze_checks(i32 noundef %0, ptr noundef %1, i32 noundef %2) #0 {
  %4 = alloca i32, align 4
  %5 = alloca ptr, align 8
  %6 = alloca i32, align 4
  %7 = alloca ptr, align 8
  %8 = alloca i32, align 4
  %9 = alloca ptr, align 8
  %10 = alloca ptr, align 8
  %11 = alloca ptr, align 8
  %12 = alloca i32, align 4
  %13 = alloca i32, align 4
  store i32 %0, ptr %4, align 4
  store ptr %1, ptr %5, align 8
  store i32 %2, ptr %6, align 4
  call void @llvm.lifetime.start.p0(i64 8, ptr %7) #10
  %14 = load i32, ptr %4, align 4
  %15 = call ptr @BufferGetPage(i32 noundef %14)
  store ptr %15, ptr %7, align 8
  call void @llvm.lifetime.start.p0(i64 4, ptr %8) #10
  store i32 0, ptr %8, align 4
  br label %16

16:                                               ; preds = %99, %3
  %17 = load i32, ptr %8, align 4
  %18 = load i32, ptr %6, align 4
  %19 = icmp slt i32 %17, %18
  br i1 %19, label %21, label %20

20:                                               ; preds = %16
  call void @llvm.lifetime.end.p0(i64 4, ptr %8) #10
  br label %102

21:                                               ; preds = %16
  call void @llvm.lifetime.start.p0(i64 8, ptr %9) #10
  %22 = load ptr, ptr %5, align 8
  %23 = load i32, ptr %8, align 4
  %24 = sext i32 %23 to i64
  %25 = getelementptr inbounds %struct.HeapTupleFreeze, ptr %22, i64 %24
  store ptr %25, ptr %9, align 8
  call void @llvm.lifetime.start.p0(i64 8, ptr %10) #10
  %26 = load ptr, ptr %7, align 8
  %27 = load ptr, ptr %9, align 8
  %28 = getelementptr inbounds nuw %struct.HeapTupleFreeze, ptr %27, i32 0, i32 5
  %29 = load i16, ptr %28, align 2
  %30 = call ptr @PageGetItemId(ptr noundef %26, i16 noundef zeroext %29)
  store ptr %30, ptr %10, align 8
  call void @llvm.lifetime.start.p0(i64 8, ptr %11) #10
  %31 = load ptr, ptr %7, align 8
  %32 = load ptr, ptr %10, align 8
  %33 = call ptr @PageGetItem(ptr noundef %31, ptr noundef %32)
  store ptr %33, ptr %11, align 8
  %34 = load ptr, ptr %9, align 8
  %35 = getelementptr inbounds nuw %struct.HeapTupleFreeze, ptr %34, i32 0, i32 4
  %36 = load i8, ptr %35, align 1
  %37 = zext i8 %36 to i32
  %38 = and i32 %37, 1
  %39 = icmp ne i32 %38, 0
  br i1 %39, label %40, label %66

40:                                               ; preds = %21
  call void @llvm.lifetime.start.p0(i64 4, ptr %12) #10
  %41 = load ptr, ptr %11, align 8
  %42 = call i32 @HeapTupleHeaderGetRawXmin(ptr noundef %41)
  store i32 %42, ptr %12, align 4
  %43 = load i32, ptr %12, align 4
  %44 = call zeroext i1 @TransactionIdDidCommit(i32 noundef %43)
  %45 = xor i1 %44, true
  %46 = zext i1 %45 to i32
  %47 = icmp ne i32 %46, 0
  %48 = zext i1 %47 to i32
  %49 = sext i32 %48 to i64
  %50 = call i64 @llvm.expect.i64(i64 %49, i64 0)
  %51 = icmp ne i64 %50, 0
  br i1 %51, label %52, label %65

52:                                               ; preds = %40
  br label %53

53:                                               ; preds = %52
  br i1 true, label %54, label %56

54:                                               ; preds = %53
  %55 = call zeroext i1 @errstart_cold(i32 noundef 21, ptr noundef null) #11
  br i1 %55, label %58, label %62

56:                                               ; preds = %53
  %57 = call zeroext i1 @errstart(i32 noundef 21, ptr noundef null)
  br i1 %57, label %58, label %62

58:                                               ; preds = %56, %54
  %59 = call i32 @errcode(i32 noundef 16779816)
  %60 = load i32, ptr %12, align 4
  %61 = call i32 (ptr, ...) @errmsg_internal(ptr noundef @.str.24, i32 noundef %60)
  call void @errfinish(ptr noundef @.str.1, i32 noundef 7258, ptr noundef @__func__.heap_pre_freeze_checks)
  br label %62

62:                                               ; preds = %58, %56, %54
  unreachable

63:                                               ; No predecessors!
  br label %64

64:                                               ; preds = %63
  br label %65

65:                                               ; preds = %64, %40
  call void @llvm.lifetime.end.p0(i64 4, ptr %12) #10
  br label %66

66:                                               ; preds = %65, %21
  %67 = load ptr, ptr %9, align 8
  %68 = getelementptr inbounds nuw %struct.HeapTupleFreeze, ptr %67, i32 0, i32 4
  %69 = load i8, ptr %68, align 1
  %70 = zext i8 %69 to i32
  %71 = and i32 %70, 2
  %72 = icmp ne i32 %71, 0
  br i1 %72, label %73, label %98

73:                                               ; preds = %66
  call void @llvm.lifetime.start.p0(i64 4, ptr %13) #10
  %74 = load ptr, ptr %11, align 8
  %75 = call i32 @HeapTupleHeaderGetRawXmax(ptr noundef %74)
  store i32 %75, ptr %13, align 4
  %76 = load i32, ptr %13, align 4
  %77 = call zeroext i1 @TransactionIdDidCommit(i32 noundef %76)
  %78 = zext i1 %77 to i32
  %79 = icmp ne i32 %78, 0
  %80 = zext i1 %79 to i32
  %81 = sext i32 %80 to i64
  %82 = call i64 @llvm.expect.i64(i64 %81, i64 0)
  %83 = icmp ne i64 %82, 0
  br i1 %83, label %84, label %97

84:                                               ; preds = %73
  br label %85

85:                                               ; preds = %84
  br i1 true, label %86, label %88

86:                                               ; preds = %85
  %87 = call zeroext i1 @errstart_cold(i32 noundef 21, ptr noundef null) #11
  br i1 %87, label %90, label %94

88:                                               ; preds = %85
  %89 = call zeroext i1 @errstart(i32 noundef 21, ptr noundef null)
  br i1 %89, label %90, label %94

90:                                               ; preds = %88, %86
  %91 = call i32 @errcode(i32 noundef 16779816)
  %92 = load i32, ptr %13, align 4
  %93 = call i32 (ptr, ...) @errmsg_internal(ptr noundef @.str.25, i32 noundef %92)
  call void @errfinish(ptr noundef @.str.1, i32 noundef 7275, ptr noundef @__func__.heap_pre_freeze_checks)
  br label %94

94:                                               ; preds = %90, %88, %86
  unreachable

95:                                               ; No predecessors!
  br label %96

96:                                               ; preds = %95
  br label %97

97:                                               ; preds = %96, %73
  call void @llvm.lifetime.end.p0(i64 4, ptr %13) #10
  br label %98

98:                                               ; preds = %97, %66
  call void @llvm.lifetime.end.p0(i64 8, ptr %11) #10
  call void @llvm.lifetime.end.p0(i64 8, ptr %10) #10
  call void @llvm.lifetime.end.p0(i64 8, ptr %9) #10
  br label %99

99:                                               ; preds = %98
  %100 = load i32, ptr %8, align 4
  %101 = add i32 %100, 1
  store i32 %101, ptr %8, align 4
  br label %16, !llvm.loop !27

102:                                              ; preds = %20
  call void @llvm.lifetime.end.p0(i64 8, ptr %7) #10
  ret void
}