; Function Attrs: nounwind uwtable
define dso_local void @heap_pre_freeze_checks(i32 noundef %0, ptr noundef readonly captures(none) %1, i32 noundef %2) local_unnamed_addr #2 {
  %4 = icmp slt i32 %0, 0
  br i1 %4, label %5, label %11

5:                                                ; preds = %3
  %6 = load ptr, ptr @LocalBufferBlockPointers, align 8
  %7 = xor i32 %0, -1
  %8 = zext nneg i32 %7 to i64
  %9 = getelementptr inbounds nuw ptr, ptr %6, i64 %8
  %10 = load ptr, ptr %9, align 8
  br label %BufferGetPage.exit

11:                                               ; preds = %3
  %12 = load ptr, ptr @BufferBlocks, align 8
  %13 = add nsw i32 %0, -1
  %14 = sext i32 %13 to i64
  %15 = shl nsw i64 %14, 13
  %16 = getelementptr inbounds nuw i8, ptr %12, i64 %15
  br label %BufferGetPage.exit

BufferGetPage.exit:                               ; preds = %5, %11
  %.0.i.i = phi ptr [ %10, %5 ], [ %16, %11 ]
  %17 = icmp sgt i32 %2, 0
  br i1 %17, label %.lr.ph, label %._crit_edge

.lr.ph:                                           ; preds = %BufferGetPage.exit
  %18 = getelementptr inbounds nuw i8, ptr %.0.i.i, i64 24
  %wide.trip.count = zext nneg i32 %2 to i64
  br label %19

._crit_edge:                                      ; preds = %48, %BufferGetPage.exit
  ret void

19:                                               ; preds = %.lr.ph, %48
  %indvars.iv = phi i64 [ 0, %.lr.ph ], [ %indvars.iv.next, %48 ]
  %20 = getelementptr inbounds nuw %struct.HeapTupleFreeze, ptr %1, i64 %indvars.iv
  %21 = getelementptr inbounds nuw i8, ptr %20, i64 10
  %22 = load i16, ptr %21, align 2
  %23 = zext i16 %22 to i64
  %24 = add nsw i64 %23, -1
  %25 = getelementptr inbounds [0 x %struct.ItemIdData], ptr %18, i64 0, i64 %24
  %.val = load i32, ptr %25, align 4
  %26 = and i32 %.val, 32767
  %27 = zext nneg i32 %26 to i64
  %28 = getelementptr inbounds nuw i8, ptr %.0.i.i, i64 %27
  %29 = getelementptr inbounds nuw i8, ptr %20, i64 9
  %30 = load i8, ptr %29, align 1
  %31 = and i8 %30, 1
  %.not = icmp eq i8 %31, 0
  br i1 %.not, label %38, label %32

32:                                               ; preds = %19
  %.val18 = load i32, ptr %28, align 4
  %33 = tail call zeroext i1 @TransactionIdDidCommit(i32 noundef %.val18) #13
  br i1 %33, label %._crit_edge22, label %34, !prof !11

._crit_edge22:                                    ; preds = %32
  %.pre = load i8, ptr %29, align 1
  br label %38

34:                                               ; preds = %32
  %35 = tail call zeroext i1 @errstart_cold(i32 noundef 21, ptr noundef null) #14
  tail call void @llvm.assume(i1 %35)
  %36 = tail call i32 @errcode(i32 noundef 16779816) #13
  %37 = tail call i32 (ptr, ...) @errmsg_internal(ptr noundef nonnull @.str.24, i32 noundef %.val18) #13
  tail call void @errfinish(ptr noundef nonnull @.str.1, i32 noundef 7258, ptr noundef nonnull @__func__.heap_pre_freeze_checks) #13
  unreachable

38:                                               ; preds = %._crit_edge22, %19
  %39 = phi i8 [ %.pre, %._crit_edge22 ], [ %30, %19 ]
  %40 = and i8 %39, 2
  %.not17 = icmp eq i8 %40, 0
  br i1 %.not17, label %48, label %41

41:                                               ; preds = %38
  %42 = getelementptr i8, ptr %28, i64 4
  %.val19 = load i32, ptr %42, align 4
  %43 = tail call zeroext i1 @TransactionIdDidCommit(i32 noundef %.val19) #13
  br i1 %43, label %44, label %48, !prof !5

44:                                               ; preds = %41
  %45 = tail call zeroext i1 @errstart_cold(i32 noundef 21, ptr noundef null) #14
  tail call void @llvm.assume(i1 %45)
  %46 = tail call i32 @errcode(i32 noundef 16779816) #13
  %47 = tail call i32 (ptr, ...) @errmsg_internal(ptr noundef nonnull @.str.25, i32 noundef %.val19) #13
  tail call void @errfinish(ptr noundef nonnull @.str.1, i32 noundef 7275, ptr noundef nonnull @__func__.heap_pre_freeze_checks) #13
  unreachable

48:                                               ; preds = %41, %38
  %indvars.iv.next = add nuw nsw i64 %indvars.iv, 1
  %exitcond.not = icmp eq i64 %indvars.iv.next, %wide.trip.count
  br i1 %exitcond.not, label %._crit_edge, label %19, !llvm.loop !34
}